; Function Attrs: nofree nounwind uwtable
define void @Bac_PtrDumpModuleBlif(ptr noundef captures(none) %0, ptr noundef readonly captures(none) %1) local_unnamed_addr #3 {
  %3 = getelementptr i8, ptr %1, i64 8
  %.val16 = load ptr, ptr %3, align 8
  %4 = load ptr, ptr %.val16, align 8
  %5 = tail call i32 (ptr, ptr, ...) @fprintf(ptr noundef %0, ptr noundef nonnull @.str.4, ptr noundef %4) #14
  %6 = tail call i64 @fwrite(ptr nonnull @.str.5, i64 7, i64 1, ptr %0)
  %.val15 = load ptr, ptr %3, align 8
  %7 = getelementptr inbounds nuw i8, ptr %.val15, i64 8
  %8 = load ptr, ptr %7, align 8
  %9 = getelementptr i8, ptr %8, i64 4
  %.val67.i = load i32, ptr %9, align 4
  %10 = icmp sgt i32 %.val67.i, 0
  br i1 %10, label %.lr.ph.i, label %Bac_PtrDumpSignalsBlif.exit

.lr.ph.i:                                         ; preds = %2
  %11 = getelementptr i8, ptr %8, i64 8
  br label %12

12:                                               ; preds = %12, %.lr.ph.i
  %indvars.iv.i = phi i64 [ 0, %.lr.ph.i ], [ %indvars.iv.next.i, %12 ]
  %.val.i = load ptr, ptr %11, align 8
  %13 = getelementptr inbounds nuw ptr, ptr %.val.i, i64 %indvars.iv.i
  %14 = load ptr, ptr %13, align 8
  %15 = tail call i32 (ptr, ptr, ...) @fprintf(ptr noundef %0, ptr noundef nonnull @.str, ptr noundef %14) #14
  %indvars.iv.next.i = add nuw nsw i64 %indvars.iv.i, 1
  %.val6.i = load i32, ptr %9, align 4
  %16 = sext i32 %.val6.i to i64
  %17 = icmp slt i64 %indvars.iv.next.i, %16
  br i1 %17, label %12, label %Bac_PtrDumpSignalsBlif.exit, !llvm.loop !9

Bac_PtrDumpSignalsBlif.exit:                      ; preds = %12, %2
  %fputc = tail call i32 @fputc(i32 10, ptr %0)
  %18 = tail call i64 @fwrite(ptr nonnull @.str.6, i64 8, i64 1, ptr %0)
  %.val14 = load ptr, ptr %3, align 8
  %19 = getelementptr inbounds nuw i8, ptr %.val14, i64 16
  %20 = load ptr, ptr %19, align 8
  %21 = getelementptr i8, ptr %20, i64 4
  %.val67.i17 = load i32, ptr %21, align 4
  %22 = icmp sgt i32 %.val67.i17, 0
  br i1 %22, label %.lr.ph.i18, label %Bac_PtrDumpSignalsBlif.exit23

.lr.ph.i18:                                       ; preds = %Bac_PtrDumpSignalsBlif.exit
  %23 = getelementptr i8, ptr %20, i64 8
  br label %24

24:                                               ; preds = %24, %.lr.ph.i18
  %indvars.iv.i19 = phi i64 [ 0, %.lr.ph.i18 ], [ %indvars.iv.next.i21, %24 ]
  %.val.i20 = load ptr, ptr %23, align 8
  %25 = getelementptr inbounds nuw ptr, ptr %.val.i20, i64 %indvars.iv.i19
  %26 = load ptr, ptr %25, align 8
  %27 = tail call i32 (ptr, ptr, ...) @fprintf(ptr noundef %0, ptr noundef nonnull @.str, ptr noundef %26) #14
  %indvars.iv.next.i21 = add nuw nsw i64 %indvars.iv.i19, 1
  %.val6.i22 = load i32, ptr %21, align 4
  %28 = sext i32 %.val6.i22 to i64
  %29 = icmp slt i64 %indvars.iv.next.i21, %28
  br i1 %29, label %24, label %Bac_PtrDumpSignalsBlif.exit23, !llvm.loop !9

Bac_PtrDumpSignalsBlif.exit23:                    ; preds = %24, %Bac_PtrDumpSignalsBlif.exit
  %fputc13 = tail call i32 @fputc(i32 10, ptr %0)
  %.val = load ptr, ptr %3, align 8
  %30 = getelementptr inbounds nuw i8, ptr %.val, i64 32
  %31 = load ptr, ptr %30, align 8
  tail call void @Bac_PtrDumpBoxesBlif(ptr noundef %0, ptr noundef %31)
  %32 = tail call i64 @fwrite(ptr nonnull @.str.7, i64 6, i64 1, ptr %0)
  ret void
}